target datalayout = "e-m:e-p270:32:32-p271:32:32-p272:64:64-i64:64-i128:128-f80:128-n8:16:32:64-S128"
target triple = "x86_64-pc-linux-gnu"

%"struct.pkpy::Str" = type { i32, i8, ptr, [16 x i8] }

; Function Attrs: mustprogress nounwind uwtable
define void @_ZN4pkpy3StrC2Eib(ptr noundef nonnull align 8 dereferenceable(32) %0, i32 noundef %1, i1 noundef zeroext %2) unnamed_addr #5 align 2 {
  %4 = alloca ptr, align 8
  %5 = alloca i32, align 4
  %6 = alloca i8, align 1
  store ptr %0, ptr %4, align 8
  store i32 %1, ptr %5, align 4
  %7 = zext i1 %2 to i8
  store i8 %7, ptr %6, align 1
  %8 = load ptr, ptr %4, align 8
  %9 = getelementptr inbounds %"struct.pkpy::Str", ptr %8, i32 0, i32 0
  %10 = load i32, ptr %5, align 4
  store i32 %10, ptr %9, align 8
  %11 = getelementptr inbounds %"struct.pkpy::Str", ptr %8, i32 0, i32 1
  %12 = load i8, ptr %6, align 1
  %13 = trunc i8 %12 to i1
  %14 = zext i1 %13 to i8
  store i8 %14, ptr %11, align 4
  %15 = getelementptr inbounds %"struct.pkpy::Str", ptr %8, i32 0, i32 0
  %16 = load i32, ptr %15, align 8
  %17 = icmp slt i32 %16, 16
  br i1 %17, label %18, label %22

18:                                               ; preds = %3
  %19 = getelementptr inbounds %"struct.pkpy::Str", ptr %8, i32 0, i32 3
  %20 = getelementptr inbounds [16 x i8], ptr %19, i64 0, i64 0
  %21 = getelementptr inbounds %"struct.pkpy::Str", ptr %8, i32 0, i32 2
  store ptr %20, ptr %21, align 8
  br label %29

22:                                               ; preds = %3
  %23 = getelementptr inbounds %"struct.pkpy::Str", ptr %8, i32 0, i32 0
  %24 = load i32, ptr %23, align 8
  %25 = add nsw i32 %24, 1
  %26 = sext i32 %25 to i64
  %27 = call noundef ptr @_ZN4pkpy12pool64_allocEm(i64 noundef %26) #3
  %28 = getelementptr inbounds %"struct.pkpy::Str", ptr %8, i32 0, i32 2
  store ptr %27, ptr %28, align 8
  br label %29

29:                                               ; preds = %22, %18
  ret void
}