; Function Attrs: mustprogress nounwind uwtable
define void @_ZN4pkpy3StrC2Eib(ptr noundef nonnull align 8 dereferenceable(32) %0, i32 noundef %1, i1 noundef zeroext %2) unnamed_addr #4 align 2 {
  %4 = zext i1 %2 to i8
  store i32 %1, ptr %0, align 8
  %5 = getelementptr inbounds i8, ptr %0, i64 4
  store i8 %4, ptr %5, align 4
  %6 = icmp slt i32 %1, 16
  br i1 %6, label %7, label %9

7:                                                ; preds = %3
  %8 = getelementptr inbounds i8, ptr %0, i64 16
  br label %13

9:                                                ; preds = %3
  %10 = add nuw nsw i32 %1, 1
  %11 = zext nneg i32 %10 to i64
  %12 = tail call noundef ptr @_ZN4pkpy12pool64_allocEm(i64 noundef %11) #23
  br label %13

13:                                               ; preds = %9, %7
  %.sink = phi ptr [ %8, %7 ], [ %12, %9 ]
  %14 = getelementptr inbounds i8, ptr %0, i64 8
  store ptr %.sink, ptr %14, align 8
  ret void
}